target datalayout = "e-m:e-p270:32:32-p271:32:32-p272:64:64-i64:64-i128:128-f80:128-n8:16:32:64-S128"
target triple = "x86_64-pc-linux-gnu"

%struct.h5tool_format_t = type { i8, ptr, ptr, ptr, ptr, ptr, ptr, ptr, ptr, ptr, ptr, ptr, ptr, ptr, ptr, ptr, ptr, ptr, i32, i32, i32, ptr, ptr, ptr, i32, ptr, ptr, ptr, ptr, ptr, ptr, ptr, ptr, ptr, ptr, ptr, ptr, ptr, ptr, ptr, ptr, i32, i64, ptr, ptr, ptr, ptr, ptr, i32, ptr, i32, i32, ptr, i32, ptr, ptr, ptr, ptr, i32, i32 }
%union.anon.0 = type { ptr }

@.str.1 = private unnamed_addr constant [2 x i8] c",\00", align 1
@.str.6 = private unnamed_addr constant [6 x i8] c"%s%lu\00", align 1
@.str.7 = private unnamed_addr constant [2 x i8] c"(\00", align 1
@.str.8 = private unnamed_addr constant [2 x i8] c")\00", align 1
@.str.16 = private unnamed_addr constant [4 x i8] c",\01 \00", align 1
@.str.17 = private unnamed_addr constant [1 x i8] zeroinitializer, align 1

; Function Attrs: nounwind uwtable
define void @h5tools_str_dump_space_points(ptr noundef %0, i64 noundef %1, ptr noundef %2) #0 {
  %4 = alloca ptr, align 8
  %5 = alloca i64, align 8
  %6 = alloca ptr, align 8
  %7 = alloca i64, align 8
  %8 = alloca i32, align 4
  %9 = alloca %union.anon.0, align 8
  %10 = alloca ptr, align 8
  %11 = alloca i64, align 8
  %12 = alloca i64, align 8
  %13 = alloca ptr, align 8
  %14 = alloca i64, align 8
  %15 = alloca i32, align 4
  %16 = alloca i32, align 4
  store ptr %0, ptr %4, align 8, !tbaa !3
  store i64 %1, ptr %5, align 8, !tbaa !17
  store ptr %2, ptr %6, align 8, !tbaa !19
  call void @llvm.lifetime.start.p0(i64 8, ptr %7) #12
  call void @llvm.lifetime.start.p0(i64 4, ptr %8) #12
  call void @llvm.lifetime.start.p0(i64 8, ptr %9) #12
  call void @llvm.lifetime.start.p0(i64 8, ptr %10) #12
  %17 = call i32 @H5Eauto_is_v2(i64 noundef 0, ptr noundef %8)
  %18 = load i32, ptr %8, align 4, !tbaa !15
  %19 = icmp ne i32 %18, 0
  br i1 %19, label %20, label %23

20:                                               ; preds = %3
  %21 = call i32 @H5Eget_auto2(i64 noundef 0, ptr noundef %9, ptr noundef %10)
  %22 = call i32 @H5Eset_auto2(i64 noundef 0, ptr noundef null, ptr noundef null)
  br label %26

23:                                               ; preds = %3
  %24 = call i32 @H5Eget_auto1(ptr noundef %9, ptr noundef %10)
  %25 = call i32 @H5Eset_auto1(ptr noundef null, ptr noundef null)
  br label %26

26:                                               ; preds = %23, %20
  %27 = load i64, ptr %5, align 8, !tbaa !17
  %28 = call i64 @H5Sget_select_elem_npoints(i64 noundef %27)
  store i64 %28, ptr %7, align 8, !tbaa !17
  %29 = load i32, ptr %8, align 4, !tbaa !15
  %30 = icmp ne i32 %29, 0
  br i1 %30, label %31, label %35

31:                                               ; preds = %26
  %32 = load ptr, ptr %9, align 8, !tbaa !18
  %33 = load ptr, ptr %10, align 8, !tbaa !46
  %34 = call i32 @H5Eset_auto2(i64 noundef 0, ptr noundef %32, ptr noundef %33)
  br label %39

35:                                               ; preds = %26
  %36 = load ptr, ptr %9, align 8, !tbaa !18
  %37 = load ptr, ptr %10, align 8, !tbaa !46
  %38 = call i32 @H5Eset_auto1(ptr noundef %36, ptr noundef %37)
  br label %39

39:                                               ; preds = %35, %31
  call void @llvm.lifetime.end.p0(i64 8, ptr %10) #12
  call void @llvm.lifetime.end.p0(i64 8, ptr %9) #12
  call void @llvm.lifetime.end.p0(i64 4, ptr %8) #12
  %40 = load i64, ptr %7, align 8, !tbaa !17
  %41 = icmp sgt i64 %40, 0
  br i1 %41, label %42, label %102

42:                                               ; preds = %39
  call void @llvm.lifetime.start.p0(i64 8, ptr %11) #12
  call void @llvm.lifetime.start.p0(i64 8, ptr %12) #12
  call void @llvm.lifetime.start.p0(i64 8, ptr %13) #12
  call void @llvm.lifetime.start.p0(i64 8, ptr %14) #12
  call void @llvm.lifetime.start.p0(i64 4, ptr %15) #12
  %43 = load i64, ptr %5, align 8, !tbaa !17
  %44 = call i32 @H5Sget_simple_extent_ndims(i64 noundef %43)
  store i32 %44, ptr %15, align 4, !tbaa !15
  %45 = load i64, ptr %7, align 8, !tbaa !17
  store i64 %45, ptr %12, align 8, !tbaa !17
  %46 = load i64, ptr %12, align 8, !tbaa !17
  %47 = load i32, ptr %15, align 4, !tbaa !15
  %48 = zext i32 %47 to i64
  %49 = mul i64 %46, %48
  %50 = mul i64 %49, 8
  store i64 %50, ptr %11, align 8, !tbaa !17
  %51 = load i64, ptr %11, align 8, !tbaa !17
  %52 = call noalias ptr @malloc(i64 noundef %51) #15
  store ptr %52, ptr %13, align 8, !tbaa !34
  %53 = load i64, ptr %5, align 8, !tbaa !17
  %54 = load i64, ptr %12, align 8, !tbaa !17
  %55 = load ptr, ptr %13, align 8, !tbaa !34
  %56 = call i32 @H5Sget_select_elem_pointlist(i64 noundef %53, i64 noundef 0, i64 noundef %54, ptr noundef %55)
  store i64 0, ptr %14, align 8, !tbaa !17
  br label %57

57:                                               ; preds = %97, %42
  %58 = load i64, ptr %14, align 8, !tbaa !17
  %59 = load i64, ptr %12, align 8, !tbaa !17
  %60 = icmp ult i64 %58, %59
  br i1 %60, label %61, label %100

61:                                               ; preds = %57
  call void @llvm.lifetime.start.p0(i64 4, ptr %16) #12
  %62 = load ptr, ptr %4, align 8, !tbaa !3
  %63 = load ptr, ptr %6, align 8, !tbaa !19
  %64 = getelementptr inbounds nuw %struct.h5tool_format_t, ptr %63, i32 0, i32 56
  %65 = load ptr, ptr %64, align 8, !tbaa !51
  %66 = load i64, ptr %14, align 8, !tbaa !17
  %67 = icmp ne i64 %66, 0
  %68 = select i1 %67, ptr @.str.16, ptr @.str.17
  %69 = load i64, ptr %14, align 8, !tbaa !17
  %70 = call ptr (ptr, ptr, ...) @h5tools_str_append(ptr noundef %62, ptr noundef %65, ptr noundef %68, i64 noundef %69)
  store i32 0, ptr %16, align 4, !tbaa !15
  br label %71

71:                                               ; preds = %91, %61
  %72 = load i32, ptr %16, align 4, !tbaa !15
  %73 = load i32, ptr %15, align 4, !tbaa !15
  %74 = icmp ult i32 %72, %73
  br i1 %74, label %75, label %94

75:                                               ; preds = %71
  %76 = load ptr, ptr %4, align 8, !tbaa !3
  %77 = load i32, ptr %16, align 4, !tbaa !15
  %78 = icmp ne i32 %77, 0
  %79 = select i1 %78, ptr @.str.1, ptr @.str.7
  %80 = load ptr, ptr %13, align 8, !tbaa !34
  %81 = load i64, ptr %14, align 8, !tbaa !17
  %82 = load i32, ptr %15, align 4, !tbaa !15
  %83 = zext i32 %82 to i64
  %84 = mul i64 %81, %83
  %85 = load i32, ptr %16, align 4, !tbaa !15
  %86 = zext i32 %85 to i64
  %87 = add i64 %84, %86
  %88 = getelementptr inbounds nuw i64, ptr %80, i64 %87
  %89 = load i64, ptr %88, align 8, !tbaa !17
  %90 = call ptr (ptr, ptr, ...) @h5tools_str_append(ptr noundef %76, ptr noundef @.str.6, ptr noundef %79, i64 noundef %89)
  br label %91

91:                                               ; preds = %75
  %92 = load i32, ptr %16, align 4, !tbaa !15
  %93 = add i32 %92, 1
  store i32 %93, ptr %16, align 4, !tbaa !15
  br label %71, !llvm.loop !52

94:                                               ; preds = %71
  %95 = load ptr, ptr %4, align 8, !tbaa !3
  %96 = call ptr (ptr, ptr, ...) @h5tools_str_append(ptr noundef %95, ptr noundef @.str.8)
  call void @llvm.lifetime.end.p0(i64 4, ptr %16) #12
  br label %97

97:                                               ; preds = %94
  %98 = load i64, ptr %14, align 8, !tbaa !17
  %99 = add i64 %98, 1
  store i64 %99, ptr %14, align 8, !tbaa !17
  br label %57, !llvm.loop !53

100:                                              ; preds = %57
  %101 = load ptr, ptr %13, align 8, !tbaa !34
  call void @free(ptr noundef %101) #12
  call void @llvm.lifetime.end.p0(i64 4, ptr %15) #12
  call void @llvm.lifetime.end.p0(i64 8, ptr %14) #12
  call void @llvm.lifetime.end.p0(i64 8, ptr %13) #12
  call void @llvm.lifetime.end.p0(i64 8, ptr %12) #12
  call void @llvm.lifetime.end.p0(i64 8, ptr %11) #12
  br label %102

102:                                              ; preds = %100, %39
  call void @llvm.lifetime.end.p0(i64 8, ptr %7) #12
  ret void
}