; Function Attrs: nounwind uwtable
define void @h5tools_str_dump_space_points(ptr noundef captures(none) %0, i64 noundef %1, ptr noundef readonly captures(none) %2) local_unnamed_addr #4 {
  %4 = alloca i32, align 4
  %5 = alloca %union.anon.0, align 8
  %6 = alloca ptr, align 8
  call void @llvm.lifetime.start.p0(i64 4, ptr nonnull %4) #21
  call void @llvm.lifetime.start.p0(i64 8, ptr nonnull %5) #21
  call void @llvm.lifetime.start.p0(i64 8, ptr nonnull %6) #21
  %7 = call i32 @H5Eauto_is_v2(i64 noundef 0, ptr noundef nonnull %4) #21
  %8 = load i32, ptr %4, align 4, !tbaa !36
  %.not = icmp eq i32 %8, 0
  br i1 %.not, label %12, label %9

9:                                                ; preds = %3
  %10 = call i32 @H5Eget_auto2(i64 noundef 0, ptr noundef nonnull %5, ptr noundef nonnull %6) #21
  %11 = call i32 @H5Eset_auto2(i64 noundef 0, ptr noundef null, ptr noundef null) #21
  br label %15

12:                                               ; preds = %3
  %13 = call i32 @H5Eget_auto1(ptr noundef nonnull %5, ptr noundef nonnull %6) #21
  %14 = call i32 @H5Eset_auto1(ptr noundef null, ptr noundef null) #21
  br label %15

15:                                               ; preds = %12, %9
  %16 = call i64 @H5Sget_select_elem_npoints(i64 noundef %1) #21
  %17 = load i32, ptr %4, align 4, !tbaa !36
  %.not29 = icmp eq i32 %17, 0
  %18 = load ptr, ptr %5, align 8, !tbaa !12
  %19 = load ptr, ptr %6, align 8, !tbaa !37
  br i1 %.not29, label %22, label %20

20:                                               ; preds = %15
  %21 = call i32 @H5Eset_auto2(i64 noundef 0, ptr noundef %18, ptr noundef %19) #21
  br label %24

22:                                               ; preds = %15
  %23 = call i32 @H5Eset_auto1(ptr noundef %18, ptr noundef %19) #21
  br label %24

24:                                               ; preds = %22, %20
  call void @llvm.lifetime.end.p0(i64 8, ptr nonnull %6) #21
  call void @llvm.lifetime.end.p0(i64 8, ptr nonnull %5) #21
  call void @llvm.lifetime.end.p0(i64 4, ptr nonnull %4) #21
  %25 = icmp sgt i64 %16, 0
  br i1 %25, label %26, label %51

26:                                               ; preds = %24
  %27 = call i32 @H5Sget_simple_extent_ndims(i64 noundef %1) #21
  %.fr36 = freeze i32 %27
  %28 = zext i32 %.fr36 to i64
  %29 = shl i64 %16, 3
  %30 = mul i64 %29, %28
  %31 = call noalias ptr @malloc(i64 noundef %30) #22
  %32 = call i32 @H5Sget_select_elem_pointlist(i64 noundef %1, i64 noundef 0, i64 noundef %16, ptr noundef %31) #21
  %33 = getelementptr inbounds nuw i8, ptr %2, i64 432
  %.not37 = icmp eq i32 %.fr36, 0
  br i1 %.not37, label %.split, label %.lr.ph.us

.lr.ph.us:                                        ; preds = %26, %._crit_edge.us
  %.02733.us = phi i64 [ %45, %._crit_edge.us ], [ 0, %26 ]
  %34 = load ptr, ptr %33, align 8, !tbaa !42
  %.not30.us = icmp eq i64 %.02733.us, 0
  %35 = select i1 %.not30.us, ptr @.str.17, ptr @.str.16
  %36 = call ptr (ptr, ptr, ...) @h5tools_str_append(ptr noundef %0, ptr noundef %34, ptr noundef nonnull %35, i64 noundef %.02733.us)
  %37 = mul i64 %.02733.us, %28
  %38 = getelementptr i64, ptr %31, i64 %37
  br label %39

39:                                               ; preds = %.lr.ph.us, %39
  %indvars.iv = phi i64 [ 0, %.lr.ph.us ], [ %indvars.iv.next, %39 ]
  %.not31.us = icmp eq i64 %indvars.iv, 0
  %40 = select i1 %.not31.us, ptr @.str.7, ptr @.str.1
  %41 = getelementptr i64, ptr %38, i64 %indvars.iv
  %42 = load i64, ptr %41, align 8, !tbaa !22
  %43 = call ptr (ptr, ptr, ...) @h5tools_str_append(ptr noundef %0, ptr noundef nonnull @.str.6, ptr noundef nonnull %40, i64 noundef %42)
  %indvars.iv.next = add nuw nsw i64 %indvars.iv, 1
  %exitcond.not = icmp eq i64 %indvars.iv.next, %28
  br i1 %exitcond.not, label %._crit_edge.us, label %39, !llvm.loop !43

._crit_edge.us:                                   ; preds = %39
  %44 = call ptr (ptr, ptr, ...) @h5tools_str_append(ptr noundef %0, ptr noundef nonnull @.str.8)
  %45 = add nuw i64 %.02733.us, 1
  %exitcond40.not = icmp eq i64 %45, %16
  br i1 %exitcond40.not, label %.split35.us, label %.lr.ph.us, !llvm.loop !44

.split:                                           ; preds = %26, %.split
  %.02733 = phi i64 [ %50, %.split ], [ 0, %26 ]
  %46 = load ptr, ptr %33, align 8, !tbaa !42
  %.not30 = icmp eq i64 %.02733, 0
  %47 = select i1 %.not30, ptr @.str.17, ptr @.str.16
  %48 = call ptr (ptr, ptr, ...) @h5tools_str_append(ptr noundef %0, ptr noundef %46, ptr noundef nonnull %47, i64 noundef %.02733)
  %49 = call ptr (ptr, ptr, ...) @h5tools_str_append(ptr noundef %0, ptr noundef nonnull @.str.8)
  %50 = add nuw i64 %.02733, 1
  %exitcond41.not = icmp eq i64 %50, %16
  br i1 %exitcond41.not, label %.split35.us, label %.split, !llvm.loop !44

.split35.us:                                      ; preds = %._crit_edge.us, %.split
  call void @free(ptr noundef %31) #21
  br label %51

51:                                               ; preds = %.split35.us, %24
  ret void
}